target datalayout = "e-m:e-p270:32:32-p271:32:32-p272:64:64-i64:64-i128:128-f80:128-n8:16:32:64-S128"
target triple = "x86_64-pc-linux-gnu"

%struct.eio_obj = type { i32, ptr, ptr, i8 }

@.str.71 = private unnamed_addr constant [40 x i8] c"Called _task_write_error, closing fd %d\00", align 1

; Function Attrs: nounwind uwtable
define internal i32 @_task_write_error(ptr noundef %0, ptr noundef %1) #0 {
  %3 = alloca ptr, align 8
  %4 = alloca ptr, align 8
  store ptr %0, ptr %3, align 8
  store ptr %1, ptr %4, align 8
  br label %5

5:                                                ; preds = %2
  br label %6

6:                                                ; preds = %5
  %7 = call i32 @get_log_level()
  %8 = icmp sge i32 %7, 8
  br i1 %8, label %9, label %13

9:                                                ; preds = %6
  %10 = load ptr, ptr %3, align 8
  %11 = getelementptr inbounds nuw %struct.eio_obj, ptr %10, i32 0, i32 0
  %12 = load i32, ptr %11, align 8
  call void (i32, ptr, ...) @log_var(i32 noundef 8, ptr noundef @.str.71, i32 noundef %12)
  br label %13

13:                                               ; preds = %9, %6
  br label %14

14:                                               ; preds = %13
  br label %15

15:                                               ; preds = %14
  %16 = load ptr, ptr %3, align 8
  %17 = getelementptr inbounds nuw %struct.eio_obj, ptr %16, i32 0, i32 0
  %18 = load i32, ptr %17, align 8
  %19 = call i32 @close(i32 noundef %18)
  %20 = load ptr, ptr %3, align 8
  %21 = getelementptr inbounds nuw %struct.eio_obj, ptr %20, i32 0, i32 0
  store i32 -1, ptr %21, align 8
  ret i32 0
}