; Function Attrs: nounwind uwtable
define internal noundef i32 @_task_write_error(ptr noundef captures(none) %0, ptr readnone captures(none) %1) #0 {
  %3 = tail call i32 @get_log_level() #11
  %4 = icmp sgt i32 %3, 7
  br i1 %4, label %5, label %7

5:                                                ; preds = %2
  %6 = load i32, ptr %0, align 8
  tail call void (i32, ptr, ...) @log_var(i32 noundef 8, ptr noundef nonnull @.str.71, i32 noundef %6) #11
  br label %7

7:                                                ; preds = %5, %2
  %8 = load i32, ptr %0, align 8
  %9 = tail call i32 @close(i32 noundef %8) #11
  store i32 -1, ptr %0, align 8
  ret i32 0
}